target datalayout = "e-m:e-p270:32:32-p271:32:32-p272:64:64-i64:64-i128:128-f80:128-n8:16:32:64-S128"
target triple = "x86_64-pc-linux-gnu"

%class.anon.225 = type { ptr }
%"struct.std::thread::_State_impl" = type { %"struct.std::thread::_State", %"struct.std::thread::_Invoker" }
%"struct.std::thread::_State" = type { ptr }
%"struct.std::thread::_Invoker" = type { %"class.std::tuple.1288" }
%"class.std::tuple.1288" = type { %"struct.std::_Tuple_impl.1289" }
%"struct.std::_Tuple_impl.1289" = type { %"struct.std::_Tuple_impl.1290", %"struct.std::_Head_base.1296" }
%"struct.std::_Tuple_impl.1290" = type { %"struct.std::_Tuple_impl.1291", %"struct.std::_Head_base.1295" }
%"struct.std::_Tuple_impl.1291" = type { %"struct.std::_Tuple_impl.1292", %"struct.std::_Head_base.1294" }
%"struct.std::_Tuple_impl.1292" = type { %"struct.std::_Head_base.1293" }
%"struct.std::_Head_base.1293" = type { i64 }
%"struct.std::_Head_base.1294" = type { i64 }
%"struct.std::_Head_base.1295" = type { i64 }
%"struct.std::_Head_base.1296" = type { %class.anon.225 }

; Function Attrs: mustprogress nounwind uwtable
define linkonce_odr noundef nonnull align 8 dereferenceable(8) ptr @_ZNSt10_Head_baseILm3EmLb0EE7_M_headERS0_(ptr noundef nonnull align 8 dereferenceable(8) %0) #4 comdat align 2 {
  %2 = alloca ptr, align 8
  store ptr %0, ptr %2, align 8
  %3 = load ptr, ptr %2, align 8
  %4 = getelementptr inbounds %"struct.std::_Head_base.1293", ptr %3, i32 0, i32 0
  ret ptr %4
}

; Function Attrs: mustprogress nounwind uwtable
define linkonce_odr noundef nonnull align 8 dereferenceable(8) ptr @_ZNSt10_Head_baseILm2ElLb0EE7_M_headERS0_(ptr noundef nonnull align 8 dereferenceable(8) %0) #4 comdat align 2 {
  %2 = alloca ptr, align 8
  store ptr %0, ptr %2, align 8
  %3 = load ptr, ptr %2, align 8
  %4 = getelementptr inbounds %"struct.std::_Head_base.1294", ptr %3, i32 0, i32 0
  ret ptr %4
}

; Function Attrs: mustprogress nounwind uwtable
define linkonce_odr noundef nonnull align 8 dereferenceable(8) ptr @_ZNSt10_Head_baseILm1ElLb0EE7_M_headERS0_(ptr noundef nonnull align 8 dereferenceable(8) %0) #4 comdat align 2 {
  %2 = alloca ptr, align 8
  store ptr %0, ptr %2, align 8
  %3 = load ptr, ptr %2, align 8
  %4 = getelementptr inbounds %"struct.std::_Head_base.1295", ptr %3, i32 0, i32 0
  ret ptr %4
}

; Function Attrs: mustprogress nounwind uwtable
define internal noundef nonnull align 8 dereferenceable(8) ptr @"_ZNSt10_Head_baseILm0EZN3igl12parallel_forIlZNS0_12parallel_forIlZ16fit_rotations_l1RKN5Eigen6MatrixIdLin1ELin1ELi0ELin1ELin1EEERS5_S8_R15cube_style_dataRNS4_IdLin1ELi1ELi0ELin1ELi1EEEE3$_0EEbT_RKT0_mEUlmE_ZNS2_IlSD_EEbSE_SH_mEUllmE_SI_EEbSE_SH_RKT1_RKT2_mEUlllmE_Lb0EE7_M_headERSR_"(ptr noundef nonnull align 8 dereferenceable(8) %0) #4 align 2 {
  %2 = alloca ptr, align 8
  store ptr %0, ptr %2, align 8
  %3 = load ptr, ptr %2, align 8
  %4 = getelementptr inbounds %"struct.std::_Head_base.1296", ptr %3, i32 0, i32 0
  ret ptr %4
}

; Function Attrs: mustprogress uwtable
define internal void @"_ZZN3igl12parallel_forIlZNS_12parallel_forIlZ16fit_rotations_l1RKN5Eigen6MatrixIdLin1ELin1ELi0ELin1ELin1EEERS4_S7_R15cube_style_dataRNS3_IdLin1ELi1ELi0ELin1ELi1EEEE3$_0EEbT_RKT0_mEUlmE_ZNS1_IlSC_EEbSD_SG_mEUllmE_SH_EEbSD_SG_RKT1_RKT2_mENKUlllmE_clEllm"(ptr noundef nonnull align 8 dereferenceable(8) %0, i64 noundef %1, i64 noundef %2, i64 noundef %3) #5 align 2 {
  %5 = alloca ptr, align 8
  %6 = alloca i64, align 8
  %7 = alloca i64, align 8
  %8 = alloca i64, align 8
  %9 = alloca i64, align 8
  store ptr %0, ptr %5, align 8
  store i64 %1, ptr %6, align 8
  store i64 %2, ptr %7, align 8
  store i64 %3, ptr %8, align 8
  %10 = load ptr, ptr %5, align 8
  %11 = load i64, ptr %6, align 8
  store i64 %11, ptr %9, align 8
  br label %12

12:                                               ; preds = %21, %4
  %13 = load i64, ptr %9, align 8
  %14 = load i64, ptr %7, align 8
  %15 = icmp slt i64 %13, %14
  br i1 %15, label %16, label %24

16:                                               ; preds = %12
  %17 = getelementptr inbounds %class.anon.225, ptr %10, i32 0, i32 0
  %18 = load ptr, ptr %17, align 8
  %19 = load i64, ptr %9, align 8
  %20 = load i64, ptr %8, align 8
  call void @"_ZZN3igl12parallel_forIlZ16fit_rotations_l1RKN5Eigen6MatrixIdLin1ELin1ELi0ELin1ELin1EEERS3_S6_R15cube_style_dataRNS2_IdLin1ELi1ELi0ELin1ELi1EEEE3$_0EEbT_RKT0_mENKUllmE_clElm"(ptr noundef nonnull align 8 dereferenceable(8) %18, i64 noundef %19, i64 noundef %20)
  br label %21

21:                                               ; preds = %16
  %22 = load i64, ptr %9, align 8
  %23 = add nsw i64 %22, 1
  store i64 %23, ptr %9, align 8
  br label %12, !llvm.loop !238

24:                                               ; preds = %12
  ret void
}

; Function Attrs: mustprogress nounwind uwtable
define linkonce_odr noundef nonnull align 8 dereferenceable(8) ptr @_ZNSt11_Tuple_implILm3EJmEE7_M_headERS0_(ptr noundef nonnull align 8 dereferenceable(8) %0) #4 comdat align 2 {
  %2 = alloca ptr, align 8
  store ptr %0, ptr %2, align 8
  %3 = load ptr, ptr %2, align 8
  %4 = call noundef nonnull align 8 dereferenceable(8) ptr @_ZNSt10_Head_baseILm3EmLb0EE7_M_headERS0_(ptr noundef nonnull align 8 dereferenceable(8) %3) #3
  ret ptr %4
}

; Function Attrs: mustprogress nounwind uwtable
define linkonce_odr noundef nonnull align 8 dereferenceable(8) ptr @_ZNSt11_Tuple_implILm2EJlmEE7_M_headERS0_(ptr noundef nonnull align 8 dereferenceable(16) %0) #4 comdat align 2 {
  %2 = alloca ptr, align 8
  store ptr %0, ptr %2, align 8
  %3 = load ptr, ptr %2, align 8
  %4 = getelementptr inbounds i8, ptr %3, i64 8
  %5 = call noundef nonnull align 8 dereferenceable(8) ptr @_ZNSt10_Head_baseILm2ElLb0EE7_M_headERS0_(ptr noundef nonnull align 8 dereferenceable(8) %4) #3
  ret ptr %5
}

; Function Attrs: mustprogress nounwind uwtable
define linkonce_odr noundef nonnull align 8 dereferenceable(8) ptr @_ZNSt11_Tuple_implILm1EJllmEE7_M_headERS0_(ptr noundef nonnull align 8 dereferenceable(24) %0) #4 comdat align 2 {
  %2 = alloca ptr, align 8
  store ptr %0, ptr %2, align 8
  %3 = load ptr, ptr %2, align 8
  %4 = getelementptr inbounds i8, ptr %3, i64 16
  %5 = call noundef nonnull align 8 dereferenceable(8) ptr @_ZNSt10_Head_baseILm1ElLb0EE7_M_headERS0_(ptr noundef nonnull align 8 dereferenceable(8) %4) #3
  ret ptr %5
}

; Function Attrs: mustprogress nounwind uwtable
define internal noundef nonnull align 8 dereferenceable(8) ptr @"_ZNSt11_Tuple_implILm0EJZN3igl12parallel_forIlZNS0_12parallel_forIlZ16fit_rotations_l1RKN5Eigen6MatrixIdLin1ELin1ELi0ELin1ELin1EEERS5_S8_R15cube_style_dataRNS4_IdLin1ELi1ELi0ELin1ELi1EEEE3$_0EEbT_RKT0_mEUlmE_ZNS2_IlSD_EEbSE_SH_mEUllmE_SI_EEbSE_SH_RKT1_RKT2_mEUlllmE_llmEE7_M_headERSR_"(ptr noundef nonnull align 8 dereferenceable(32) %0) #4 align 2 {
  %2 = alloca ptr, align 8
  store ptr %0, ptr %2, align 8
  %3 = load ptr, ptr %2, align 8
  %4 = getelementptr inbounds i8, ptr %3, i64 24
  %5 = call noundef nonnull align 8 dereferenceable(8) ptr @"_ZNSt10_Head_baseILm0EZN3igl12parallel_forIlZNS0_12parallel_forIlZ16fit_rotations_l1RKN5Eigen6MatrixIdLin1ELin1ELi0ELin1ELin1EEERS5_S8_R15cube_style_dataRNS4_IdLin1ELi1ELi0ELin1ELi1EEEE3$_0EEbT_RKT0_mEUlmE_ZNS2_IlSD_EEbSE_SH_mEUllmE_SI_EEbSE_SH_RKT1_RKT2_mEUlllmE_Lb0EE7_M_headERSR_"(ptr noundef nonnull align 8 dereferenceable(8) %4) #3
  ret ptr %5
}

; Function Attrs: mustprogress uwtable
define internal void @"_ZSt13__invoke_implIvZN3igl12parallel_forIlZNS0_12parallel_forIlZ16fit_rotations_l1RKN5Eigen6MatrixIdLin1ELin1ELi0ELin1ELin1EEERS5_S8_R15cube_style_dataRNS4_IdLin1ELi1ELi0ELin1ELi1EEEE3$_0EEbT_RKT0_mEUlmE_ZNS2_IlSD_EEbSE_SH_mEUllmE_SI_EEbSE_SH_RKT1_RKT2_mEUlllmE_JllmEESE_St14__invoke_otherOSF_DpOT1_"(ptr noundef nonnull align 8 dereferenceable(8) %0, ptr noundef nonnull align 8 dereferenceable(8) %1, ptr noundef nonnull align 8 dereferenceable(8) %2, ptr noundef nonnull align 8 dereferenceable(8) %3) #5 {
  %5 = alloca ptr, align 8
  %6 = alloca ptr, align 8
  %7 = alloca ptr, align 8
  %8 = alloca ptr, align 8
  store ptr %0, ptr %5, align 8
  store ptr %1, ptr %6, align 8
  store ptr %2, ptr %7, align 8
  store ptr %3, ptr %8, align 8
  %9 = load ptr, ptr %5, align 8
  %10 = load ptr, ptr %6, align 8
  %11 = load i64, ptr %10, align 8
  %12 = load ptr, ptr %7, align 8
  %13 = load i64, ptr %12, align 8
  %14 = load ptr, ptr %8, align 8
  %15 = load i64, ptr %14, align 8
  call void @"_ZZN3igl12parallel_forIlZNS_12parallel_forIlZ16fit_rotations_l1RKN5Eigen6MatrixIdLin1ELin1ELi0ELin1ELin1EEERS4_S7_R15cube_style_dataRNS3_IdLin1ELi1ELi0ELin1ELi1EEEE3$_0EEbT_RKT0_mEUlmE_ZNS1_IlSC_EEbSD_SG_mEUllmE_SH_EEbSD_SG_RKT1_RKT2_mENKUlllmE_clEllm"(ptr noundef nonnull align 8 dereferenceable(8) %9, i64 noundef %11, i64 noundef %13, i64 noundef %15)
  ret void
}

; Function Attrs: mustprogress nounwind uwtable
define linkonce_odr noundef nonnull align 8 dereferenceable(8) ptr @_ZSt12__get_helperILm3EmJEERT0_RSt11_Tuple_implIXT_EJS0_DpT1_EE(ptr noundef nonnull align 8 dereferenceable(8) %0) #4 comdat {
  %2 = alloca ptr, align 8
  store ptr %0, ptr %2, align 8
  %3 = load ptr, ptr %2, align 8
  %4 = call noundef nonnull align 8 dereferenceable(8) ptr @_ZNSt11_Tuple_implILm3EJmEE7_M_headERS0_(ptr noundef nonnull align 8 dereferenceable(8) %3) #3
  ret ptr %4
}

; Function Attrs: mustprogress nounwind uwtable
define linkonce_odr noundef nonnull align 8 dereferenceable(8) ptr @_ZSt12__get_helperILm2ElJmEERT0_RSt11_Tuple_implIXT_EJS0_DpT1_EE(ptr noundef nonnull align 8 dereferenceable(16) %0) #4 comdat {
  %2 = alloca ptr, align 8
  store ptr %0, ptr %2, align 8
  %3 = load ptr, ptr %2, align 8
  %4 = call noundef nonnull align 8 dereferenceable(8) ptr @_ZNSt11_Tuple_implILm2EJlmEE7_M_headERS0_(ptr noundef nonnull align 8 dereferenceable(16) %3) #3
  ret ptr %4
}

; Function Attrs: mustprogress nounwind uwtable
define linkonce_odr noundef nonnull align 8 dereferenceable(8) ptr @_ZSt12__get_helperILm1ElJlmEERT0_RSt11_Tuple_implIXT_EJS0_DpT1_EE(ptr noundef nonnull align 8 dereferenceable(24) %0) #4 comdat {
  %2 = alloca ptr, align 8
  store ptr %0, ptr %2, align 8
  %3 = load ptr, ptr %2, align 8
  %4 = call noundef nonnull align 8 dereferenceable(8) ptr @_ZNSt11_Tuple_implILm1EJllmEE7_M_headERS0_(ptr noundef nonnull align 8 dereferenceable(24) %3) #3
  ret ptr %4
}

; Function Attrs: mustprogress nounwind uwtable
define internal noundef nonnull align 8 dereferenceable(8) ptr @"_ZSt12__get_helperILm0EZN3igl12parallel_forIlZNS0_12parallel_forIlZ16fit_rotations_l1RKN5Eigen6MatrixIdLin1ELin1ELi0ELin1ELin1EEERS5_S8_R15cube_style_dataRNS4_IdLin1ELi1ELi0ELin1ELi1EEEE3$_0EEbT_RKT0_mEUlmE_ZNS2_IlSD_EEbSE_SH_mEUllmE_SI_EEbSE_SH_RKT1_RKT2_mEUlllmE_JllmEERSF_RSt11_Tuple_implIXT_EJSF_DpT1_EE"(ptr noundef nonnull align 8 dereferenceable(32) %0) #4 {
  %2 = alloca ptr, align 8
  store ptr %0, ptr %2, align 8
  %3 = load ptr, ptr %2, align 8
  %4 = call noundef nonnull align 8 dereferenceable(8) ptr @"_ZNSt11_Tuple_implILm0EJZN3igl12parallel_forIlZNS0_12parallel_forIlZ16fit_rotations_l1RKN5Eigen6MatrixIdLin1ELin1ELi0ELin1ELin1EEERS5_S8_R15cube_style_dataRNS4_IdLin1ELi1ELi0ELin1ELi1EEEE3$_0EEbT_RKT0_mEUlmE_ZNS2_IlSD_EEbSE_SH_mEUllmE_SI_EEbSE_SH_RKT1_RKT2_mEUlllmE_llmEE7_M_headERSR_"(ptr noundef nonnull align 8 dereferenceable(32) %3) #3
  ret ptr %4
}

; Function Attrs: mustprogress uwtable
define internal void @"_ZSt8__invokeIZN3igl12parallel_forIlZNS0_12parallel_forIlZ16fit_rotations_l1RKN5Eigen6MatrixIdLin1ELin1ELi0ELin1ELin1EEERS5_S8_R15cube_style_dataRNS4_IdLin1ELi1ELi0ELin1ELi1EEEE3$_0EEbT_RKT0_mEUlmE_ZNS2_IlSD_EEbSE_SH_mEUllmE_SI_EEbSE_SH_RKT1_RKT2_mEUlllmE_JllmEENSt15__invoke_resultISE_JDpT0_EE4typeEOSE_DpOSS_"(ptr noundef nonnull align 8 dereferenceable(8) %0, ptr noundef nonnull align 8 dereferenceable(8) %1, ptr noundef nonnull align 8 dereferenceable(8) %2, ptr noundef nonnull align 8 dereferenceable(8) %3) #5 {
  %5 = alloca ptr, align 8
  %6 = alloca ptr, align 8
  %7 = alloca ptr, align 8
  %8 = alloca ptr, align 8
  store ptr %0, ptr %5, align 8
  store ptr %1, ptr %6, align 8
  store ptr %2, ptr %7, align 8
  store ptr %3, ptr %8, align 8
  %9 = load ptr, ptr %5, align 8
  %10 = load ptr, ptr %6, align 8
  %11 = load ptr, ptr %7, align 8
  %12 = load ptr, ptr %8, align 8
  call void @"_ZSt13__invoke_implIvZN3igl12parallel_forIlZNS0_12parallel_forIlZ16fit_rotations_l1RKN5Eigen6MatrixIdLin1ELin1ELi0ELin1ELin1EEERS5_S8_R15cube_style_dataRNS4_IdLin1ELi1ELi0ELin1ELi1EEEE3$_0EEbT_RKT0_mEUlmE_ZNS2_IlSD_EEbSE_SH_mEUllmE_SI_EEbSE_SH_RKT1_RKT2_mEUlllmE_JllmEESE_St14__invoke_otherOSF_DpOT1_"(ptr noundef nonnull align 8 dereferenceable(8) %9, ptr noundef nonnull align 8 dereferenceable(8) %10, ptr noundef nonnull align 8 dereferenceable(8) %11, ptr noundef nonnull align 8 dereferenceable(8) %12)
  ret void
}

; Function Attrs: mustprogress nounwind uwtable
define internal noundef nonnull align 8 dereferenceable(8) ptr @"_ZSt3getILm3EJZN3igl12parallel_forIlZNS0_12parallel_forIlZ16fit_rotations_l1RKN5Eigen6MatrixIdLin1ELin1ELi0ELin1ELin1EEERS5_S8_R15cube_style_dataRNS4_IdLin1ELi1ELi0ELin1ELi1EEEE3$_0EEbT_RKT0_mEUlmE_ZNS2_IlSD_EEbSE_SH_mEUllmE_SI_EEbSE_SH_RKT1_RKT2_mEUlllmE_llmEEONSt13tuple_elementIXT_ESt5tupleIJDpT0_EEE4typeEOSV_"(ptr noundef nonnull align 8 dereferenceable(32) %0) #4 {
  %2 = alloca ptr, align 8
  store ptr %0, ptr %2, align 8
  %3 = load ptr, ptr %2, align 8
  %4 = call noundef nonnull align 8 dereferenceable(8) ptr @_ZSt12__get_helperILm3EmJEERT0_RSt11_Tuple_implIXT_EJS0_DpT1_EE(ptr noundef nonnull align 8 dereferenceable(8) %3) #3
  ret ptr %4
}

; Function Attrs: mustprogress nounwind uwtable
define internal noundef nonnull align 8 dereferenceable(8) ptr @"_ZSt3getILm2EJZN3igl12parallel_forIlZNS0_12parallel_forIlZ16fit_rotations_l1RKN5Eigen6MatrixIdLin1ELin1ELi0ELin1ELin1EEERS5_S8_R15cube_style_dataRNS4_IdLin1ELi1ELi0ELin1ELi1EEEE3$_0EEbT_RKT0_mEUlmE_ZNS2_IlSD_EEbSE_SH_mEUllmE_SI_EEbSE_SH_RKT1_RKT2_mEUlllmE_llmEEONSt13tuple_elementIXT_ESt5tupleIJDpT0_EEE4typeEOSV_"(ptr noundef nonnull align 8 dereferenceable(32) %0) #4 {
  %2 = alloca ptr, align 8
  store ptr %0, ptr %2, align 8
  %3 = load ptr, ptr %2, align 8
  %4 = call noundef nonnull align 8 dereferenceable(8) ptr @_ZSt12__get_helperILm2ElJmEERT0_RSt11_Tuple_implIXT_EJS0_DpT1_EE(ptr noundef nonnull align 8 dereferenceable(16) %3) #3
  ret ptr %4
}

; Function Attrs: mustprogress nounwind uwtable
define internal noundef nonnull align 8 dereferenceable(8) ptr @"_ZSt3getILm1EJZN3igl12parallel_forIlZNS0_12parallel_forIlZ16fit_rotations_l1RKN5Eigen6MatrixIdLin1ELin1ELi0ELin1ELin1EEERS5_S8_R15cube_style_dataRNS4_IdLin1ELi1ELi0ELin1ELi1EEEE3$_0EEbT_RKT0_mEUlmE_ZNS2_IlSD_EEbSE_SH_mEUllmE_SI_EEbSE_SH_RKT1_RKT2_mEUlllmE_llmEEONSt13tuple_elementIXT_ESt5tupleIJDpT0_EEE4typeEOSV_"(ptr noundef nonnull align 8 dereferenceable(32) %0) #4 {
  %2 = alloca ptr, align 8
  store ptr %0, ptr %2, align 8
  %3 = load ptr, ptr %2, align 8
  %4 = call noundef nonnull align 8 dereferenceable(8) ptr @_ZSt12__get_helperILm1ElJlmEERT0_RSt11_Tuple_implIXT_EJS0_DpT1_EE(ptr noundef nonnull align 8 dereferenceable(24) %3) #3
  ret ptr %4
}

; Function Attrs: mustprogress nounwind uwtable
define internal noundef nonnull align 8 dereferenceable(8) ptr @"_ZSt3getILm0EJZN3igl12parallel_forIlZNS0_12parallel_forIlZ16fit_rotations_l1RKN5Eigen6MatrixIdLin1ELin1ELi0ELin1ELin1EEERS5_S8_R15cube_style_dataRNS4_IdLin1ELi1ELi0ELin1ELi1EEEE3$_0EEbT_RKT0_mEUlmE_ZNS2_IlSD_EEbSE_SH_mEUllmE_SI_EEbSE_SH_RKT1_RKT2_mEUlllmE_llmEEONSt13tuple_elementIXT_ESt5tupleIJDpT0_EEE4typeEOSV_"(ptr noundef nonnull align 8 dereferenceable(32) %0) #4 {
  %2 = alloca ptr, align 8
  store ptr %0, ptr %2, align 8
  %3 = load ptr, ptr %2, align 8
  %4 = call noundef nonnull align 8 dereferenceable(8) ptr @"_ZSt12__get_helperILm0EZN3igl12parallel_forIlZNS0_12parallel_forIlZ16fit_rotations_l1RKN5Eigen6MatrixIdLin1ELin1ELi0ELin1ELin1EEERS5_S8_R15cube_style_dataRNS4_IdLin1ELi1ELi0ELin1ELi1EEEE3$_0EEbT_RKT0_mEUlmE_ZNS2_IlSD_EEbSE_SH_mEUllmE_SI_EEbSE_SH_RKT1_RKT2_mEUlllmE_JllmEERSF_RSt11_Tuple_implIXT_EJSF_DpT1_EE"(ptr noundef nonnull align 8 dereferenceable(32) %3) #3
  ret ptr %4
}

; Function Attrs: mustprogress uwtable
define internal void @"_ZNSt6thread8_InvokerISt5tupleIJZN3igl12parallel_forIlZNS2_12parallel_forIlZ16fit_rotations_l1RKN5Eigen6MatrixIdLin1ELin1ELi0ELin1ELin1EEERS7_SA_R15cube_style_dataRNS6_IdLin1ELi1ELi0ELin1ELi1EEEE3$_0EEbT_RKT0_mEUlmE_ZNS4_IlSF_EEbSG_SJ_mEUllmE_SK_EEbSG_SJ_RKT1_RKT2_mEUlllmE_llmEEE9_M_invokeIJLm0ELm1ELm2ELm3EEEEvSt12_Index_tupleIJXspT_EEE"(ptr noundef nonnull align 8 dereferenceable(32) %0) #5 align 2 {
  %2 = alloca ptr, align 8
  store ptr %0, ptr %2, align 8
  %3 = load ptr, ptr %2, align 8
  %4 = getelementptr inbounds %"struct.std::thread::_Invoker", ptr %3, i32 0, i32 0
  %5 = call noundef nonnull align 8 dereferenceable(8) ptr @"_ZSt3getILm0EJZN3igl12parallel_forIlZNS0_12parallel_forIlZ16fit_rotations_l1RKN5Eigen6MatrixIdLin1ELin1ELi0ELin1ELin1EEERS5_S8_R15cube_style_dataRNS4_IdLin1ELi1ELi0ELin1ELi1EEEE3$_0EEbT_RKT0_mEUlmE_ZNS2_IlSD_EEbSE_SH_mEUllmE_SI_EEbSE_SH_RKT1_RKT2_mEUlllmE_llmEEONSt13tuple_elementIXT_ESt5tupleIJDpT0_EEE4typeEOSV_"(ptr noundef nonnull align 8 dereferenceable(32) %4) #3
  %6 = getelementptr inbounds %"struct.std::thread::_Invoker", ptr %3, i32 0, i32 0
  %7 = call noundef nonnull align 8 dereferenceable(8) ptr @"_ZSt3getILm1EJZN3igl12parallel_forIlZNS0_12parallel_forIlZ16fit_rotations_l1RKN5Eigen6MatrixIdLin1ELin1ELi0ELin1ELin1EEERS5_S8_R15cube_style_dataRNS4_IdLin1ELi1ELi0ELin1ELi1EEEE3$_0EEbT_RKT0_mEUlmE_ZNS2_IlSD_EEbSE_SH_mEUllmE_SI_EEbSE_SH_RKT1_RKT2_mEUlllmE_llmEEONSt13tuple_elementIXT_ESt5tupleIJDpT0_EEE4typeEOSV_"(ptr noundef nonnull align 8 dereferenceable(32) %6) #3
  %8 = getelementptr inbounds %"struct.std::thread::_Invoker", ptr %3, i32 0, i32 0
  %9 = call noundef nonnull align 8 dereferenceable(8) ptr @"_ZSt3getILm2EJZN3igl12parallel_forIlZNS0_12parallel_forIlZ16fit_rotations_l1RKN5Eigen6MatrixIdLin1ELin1ELi0ELin1ELin1EEERS5_S8_R15cube_style_dataRNS4_IdLin1ELi1ELi0ELin1ELi1EEEE3$_0EEbT_RKT0_mEUlmE_ZNS2_IlSD_EEbSE_SH_mEUllmE_SI_EEbSE_SH_RKT1_RKT2_mEUlllmE_llmEEONSt13tuple_elementIXT_ESt5tupleIJDpT0_EEE4typeEOSV_"(ptr noundef nonnull align 8 dereferenceable(32) %8) #3
  %10 = getelementptr inbounds %"struct.std::thread::_Invoker", ptr %3, i32 0, i32 0
  %11 = call noundef nonnull align 8 dereferenceable(8) ptr @"_ZSt3getILm3EJZN3igl12parallel_forIlZNS0_12parallel_forIlZ16fit_rotations_l1RKN5Eigen6MatrixIdLin1ELin1ELi0ELin1ELin1EEERS5_S8_R15cube_style_dataRNS4_IdLin1ELi1ELi0ELin1ELi1EEEE3$_0EEbT_RKT0_mEUlmE_ZNS2_IlSD_EEbSE_SH_mEUllmE_SI_EEbSE_SH_RKT1_RKT2_mEUlllmE_llmEEONSt13tuple_elementIXT_ESt5tupleIJDpT0_EEE4typeEOSV_"(ptr noundef nonnull align 8 dereferenceable(32) %10) #3
  call void @"_ZSt8__invokeIZN3igl12parallel_forIlZNS0_12parallel_forIlZ16fit_rotations_l1RKN5Eigen6MatrixIdLin1ELin1ELi0ELin1ELin1EEERS5_S8_R15cube_style_dataRNS4_IdLin1ELi1ELi0ELin1ELi1EEEE3$_0EEbT_RKT0_mEUlmE_ZNS2_IlSD_EEbSE_SH_mEUllmE_SI_EEbSE_SH_RKT1_RKT2_mEUlllmE_JllmEENSt15__invoke_resultISE_JDpT0_EE4typeEOSE_DpOSS_"(ptr noundef nonnull align 8 dereferenceable(8) %5, ptr noundef nonnull align 8 dereferenceable(8) %7, ptr noundef nonnull align 8 dereferenceable(8) %9, ptr noundef nonnull align 8 dereferenceable(8) %11)
  ret void
}

; Function Attrs: mustprogress uwtable
define internal void @"_ZNSt6thread8_InvokerISt5tupleIJZN3igl12parallel_forIlZNS2_12parallel_forIlZ16fit_rotations_l1RKN5Eigen6MatrixIdLin1ELin1ELi0ELin1ELin1EEERS7_SA_R15cube_style_dataRNS6_IdLin1ELi1ELi0ELin1ELi1EEEE3$_0EEbT_RKT0_mEUlmE_ZNS4_IlSF_EEbSG_SJ_mEUllmE_SK_EEbSG_SJ_RKT1_RKT2_mEUlllmE_llmEEEclEv"(ptr noundef nonnull align 8 dereferenceable(32) %0) #5 align 2 {
  %2 = alloca ptr, align 8
  store ptr %0, ptr %2, align 8
  %3 = load ptr, ptr %2, align 8
  call void @"_ZNSt6thread8_InvokerISt5tupleIJZN3igl12parallel_forIlZNS2_12parallel_forIlZ16fit_rotations_l1RKN5Eigen6MatrixIdLin1ELin1ELi0ELin1ELin1EEERS7_SA_R15cube_style_dataRNS6_IdLin1ELi1ELi0ELin1ELi1EEEE3$_0EEbT_RKT0_mEUlmE_ZNS4_IlSF_EEbSG_SJ_mEUllmE_SK_EEbSG_SJ_RKT1_RKT2_mEUlllmE_llmEEE9_M_invokeIJLm0ELm1ELm2ELm3EEEEvSt12_Index_tupleIJXspT_EEE"(ptr noundef nonnull align 8 dereferenceable(32) %3)
  ret void
}

; Function Attrs: mustprogress uwtable
define internal void @"_ZNSt6thread11_State_implINS_8_InvokerISt5tupleIJZN3igl12parallel_forIlZNS3_12parallel_forIlZ16fit_rotations_l1RKN5Eigen6MatrixIdLin1ELin1ELi0ELin1ELin1EEERS8_SB_R15cube_style_dataRNS7_IdLin1ELi1ELi0ELin1ELi1EEEE3$_0EEbT_RKT0_mEUlmE_ZNS5_IlSG_EEbSH_SK_mEUllmE_SL_EEbSH_SK_RKT1_RKT2_mEUlllmE_llmEEEEE6_M_runEv"(ptr noundef nonnull align 8 dereferenceable(40) %0) unnamed_addr #5 align 2 {
  %2 = alloca ptr, align 8
  store ptr %0, ptr %2, align 8
  %3 = load ptr, ptr %2, align 8
  %4 = getelementptr inbounds %"struct.std::thread::_State_impl", ptr %3, i32 0, i32 1
  call void @"_ZNSt6thread8_InvokerISt5tupleIJZN3igl12parallel_forIlZNS2_12parallel_forIlZ16fit_rotations_l1RKN5Eigen6MatrixIdLin1ELin1ELi0ELin1ELin1EEERS7_SA_R15cube_style_dataRNS6_IdLin1ELi1ELi0ELin1ELi1EEEE3$_0EEbT_RKT0_mEUlmE_ZNS4_IlSF_EEbSG_SJ_mEUllmE_SK_EEbSG_SJ_RKT1_RKT2_mEUlllmE_llmEEEclEv"(ptr noundef nonnull align 8 dereferenceable(32) %4)
  ret void
}