; Function Attrs: mustprogress uwtable
define internal void @"_ZNSt6thread11_State_implINS_8_InvokerISt5tupleIJZN3igl12parallel_forIlZNS3_12parallel_forIlZ16fit_rotations_l1RKN5Eigen6MatrixIdLin1ELin1ELi0ELin1ELin1EEERS8_SB_R15cube_style_dataRNS7_IdLin1ELi1ELi0ELin1ELi1EEEE3$_0EEbT_RKT0_mEUlmE_ZNS5_IlSG_EEbSH_SK_mEUllmE_SL_EEbSH_SK_RKT1_RKT2_mEUlllmE_llmEEEEE6_M_runEv"(ptr nocapture noundef nonnull readonly align 8 dereferenceable(40) %0) unnamed_addr #7 align 2 {
  %2 = getelementptr inbounds i8, ptr %0, i64 32
  %3 = getelementptr inbounds i8, ptr %0, i64 24
  %4 = getelementptr inbounds i8, ptr %0, i64 16
  %.val.i.i = load i64, ptr %3, align 8
  %.val1.i.i = load i64, ptr %4, align 8
  %5 = icmp slt i64 %.val.i.i, %.val1.i.i
  br i1 %5, label %.lr.ph.i.i.i.i.i, label %"_ZNSt6thread8_InvokerISt5tupleIJZN3igl12parallel_forIlZNS2_12parallel_forIlZ16fit_rotations_l1RKN5Eigen6MatrixIdLin1ELin1ELi0ELin1ELin1EEERS7_SA_R15cube_style_dataRNS6_IdLin1ELi1ELi0ELin1ELi1EEEE3$_0EEbT_RKT0_mEUlmE_ZNS4_IlSF_EEbSG_SJ_mEUllmE_SK_EEbSG_SJ_RKT1_RKT2_mEUlllmE_llmEEEclEv.exit"

.lr.ph.i.i.i.i.i:                                 ; preds = %1, %.lr.ph.i.i.i.i.i
  %.06.i.i.i.i.i = phi i64 [ %7, %.lr.ph.i.i.i.i.i ], [ %.val.i.i, %1 ]
  %6 = load ptr, ptr %2, align 8
  %.val.i.i.i.i.i = load ptr, ptr %6, align 8
  tail call fastcc void @"_ZZN3igl12parallel_forIlZ16fit_rotations_l1RKN5Eigen6MatrixIdLin1ELin1ELi0ELin1ELin1EEERS3_S6_R15cube_style_dataRNS2_IdLin1ELi1ELi0ELin1ELi1EEEE3$_0EEbT_RKT0_mENKUllmE_clElm"(ptr %.val.i.i.i.i.i, i64 noundef %.06.i.i.i.i.i)
  %7 = add i64 %.06.i.i.i.i.i, 1
  %exitcond.not.i.i.i.i.i = icmp eq i64 %7, %.val1.i.i
  br i1 %exitcond.not.i.i.i.i.i, label %"_ZNSt6thread8_InvokerISt5tupleIJZN3igl12parallel_forIlZNS2_12parallel_forIlZ16fit_rotations_l1RKN5Eigen6MatrixIdLin1ELin1ELi0ELin1ELin1EEERS7_SA_R15cube_style_dataRNS6_IdLin1ELi1ELi0ELin1ELi1EEEE3$_0EEbT_RKT0_mEUlmE_ZNS4_IlSF_EEbSG_SJ_mEUllmE_SK_EEbSG_SJ_RKT1_RKT2_mEUlllmE_llmEEEclEv.exit", label %.lr.ph.i.i.i.i.i, !llvm.loop !271

"_ZNSt6thread8_InvokerISt5tupleIJZN3igl12parallel_forIlZNS2_12parallel_forIlZ16fit_rotations_l1RKN5Eigen6MatrixIdLin1ELin1ELi0ELin1ELin1EEERS7_SA_R15cube_style_dataRNS6_IdLin1ELi1ELi0ELin1ELi1EEEE3$_0EEbT_RKT0_mEUlmE_ZNS4_IlSF_EEbSG_SJ_mEUllmE_SK_EEbSG_SJ_RKT1_RKT2_mEUlllmE_llmEEEclEv.exit": ; preds = %.lr.ph.i.i.i.i.i, %1
  ret void
}